(dp1
S'layout'
p2
(ilayout
Layout
p3
(dp4
S'capsules'
p5
(lp6
(I18
I1
tp7
a(I1
I9
tp8
asS'numGhosts'
p9
I2
sS'food'
p10
(igame
Grid
p11
(dp12
S'CELLS_PER_INT'
p13
I30
sS'width'
p14
I20
sS'data'
p15
(lp16
(lp17
I00
aI00
aI00
aI00
aI00
aI00
aI00
aI00
aI00
aI00
aI00
aa(lp18
I00
aI01
aI01
aI01
aI01
aI01
aI01
aI01
aI01
aI00
aI00
aa(lp19
I00
aI01
aI00
aI00
aI00
aI01
aI00
aI00
aI00
aI01
aI00
aa(lp20
I00
aI01
aI00
aI01
aI01
aI01
aI01
aI01
aI00
aI01
aI00
aa(lp21
I00
aI01
aI01
aI01
aI00
aI01
aI00
aI01
aI01
aI01
aI00
aa(lp22
I00
aI00
aI00
aI01
aI00
aI01
aI00
aI01
aI00
aI00
aI00
aa(lp23
I00
aI01
aI01
aI01
aI01
aI01
aI01
aI01
aI01
aI01
aI00
aa(lp24
I00
aI01
aI00
aI01
aI00
aI00
aI00
aI01
aI00
aI01
aI00
aa(lp25
I00
aI01
aI00
aI01
aI00
aI00
aI00
aI01
aI00
aI01
aI00
aa(lp26
I00
aI00
aI00
aI01
aI00
aI00
aI00
aI01
aI00
aI01
aI00
aa(lp27
I00
aI01
aI00
aI01
aI00
aI00
aI00
aI01
aI00
aI01
aI00
aa(lp28
I00
aI01
aI00
aI01
aI00
aI00
aI00
aI01
aI00
aI01
aI00
aa(lp29
I00
aI01
aI00
aI01
aI00
aI00
aI00
aI01
aI00
aI01
aI00
aa(lp30
I00
aI01
aI01
aI01
aI01
aI01
aI01
aI01
aI01
aI01
aI00
aa(lp31
I00
aI00
aI00
aI01
aI00
aI01
aI00
aI01
aI00
aI00
aI00
aa(lp32
I00
aI01
aI01
aI01
aI00
aI01
aI00
aI01
aI01
aI01
aI00
aa(lp33
I00
aI01
aI00
aI01
aI01
aI01
aI01
aI01
aI00
aI01
aI00
aa(lp34
I00
aI01
aI00
aI00
aI00
aI01
aI00
aI00
aI00
aI01
aI00
aa(lp35
I00
aI00
aI01
aI01
aI01
aI01
aI01
aI01
aI01
aI01
aI00
aa(lp36
I00
aI00
aI00
aI00
aI00
aI00
aI00
aI00
aI00
aI00
aI00
aasS'height'
p37
I11
sbsS'agentPositions'
p38
(lp39
(I01
(I9
I1
tp40
tp41
a(I00
(I8
I5
tp42
tp43
a(I00
(I11
I5
tp44
tp45
asg37
I11
sg14
I20
sS'walls'
p46
(igame
Grid
p47
(dp48
g13
I30
sg14
I20
sg15
(lp49
(lp50
I01
aI01
aI01
aI01
aI01
aI01
aI01
aI01
aI01
aI01
aI01
aa(lp51
I01
aI00
aI00
aI00
aI00
aI00
aI00
aI00
aI00
aI00
aI01
aa(lp52
I01
aI00
aI01
aI01
aI01
aI00
aI01
aI01
aI01
aI00
aI01
aa(lp53
I01
aI00
aI01
aI00
aI00
aI00
aI00
aI00
aI01
aI00
aI01
aa(lp54
I01
aI00
aI00
aI00
aI01
aI00
aI01
aI00
aI00
aI00
aI01
aa(lp55
I01
aI01
aI01
aI00
aI01
aI00
aI01
aI00
aI01
aI01
aI01
aa(lp56
I01
aI00
aI00
aI00
aI00
aI00
aI00
aI00
aI00
aI00
aI01
aa(lp57
I01
aI00
aI01
aI00
aI01
aI01
aI01
aI00
aI01
aI00
aI01
aa(lp58
I01
aI00
aI01
aI00
aI01
aI00
aI01
aI00
aI01
aI00
aI01
aa(lp59
I01
aI00
aI01
aI00
aI01
aI00
aI00
aI00
aI01
aI00
aI01
aa(lp60
I01
aI00
aI01
aI00
aI01
aI00
aI00
aI00
aI01
aI00
aI01
aa(lp61
I01
aI00
aI01
aI00
aI01
aI00
aI01
aI00
aI01
aI00
aI01
aa(lp62
I01
aI00
aI01
aI00
aI01
aI01
aI01
aI00
aI01
aI00
aI01
aa(lp63
I01
aI00
aI00
aI00
aI00
aI00
aI00
aI00
aI00
aI00
aI01
aa(lp64
I01
aI01
aI01
aI00
aI01
aI00
aI01
aI00
aI01
aI01
aI01
aa(lp65
I01
aI00
aI00
aI00
aI01
aI00
aI01
aI00
aI00
aI00
aI01
aa(lp66
I01
aI00
aI01
aI00
aI00
aI00
aI00
aI00
aI01
aI00
aI01
aa(lp67
I01
aI00
aI01
aI01
aI01
aI00
aI01
aI01
aI01
aI00
aI01
aa(lp68
I01
aI00
aI00
aI00
aI00
aI00
aI00
aI00
aI00
aI00
aI01
aa(lp69
I01
aI01
aI01
aI01
aI01
aI01
aI01
aI01
aI01
aI01
aI01
aasg37
I11
sbsS'totalFood'
p70
I97
sS'layoutText'
p71
(lp72
S'%%%%%%%%%%%%%%%%%%%%'
p73
aS'%o...%........%....%'
p74
aS'%.%%.%.%%%%%%.%.%%.%'
p75
aS'%.%..............%.%'
p76
aS'%.%.%%.%%  %%.%%.%.%'
p77
aS'%......%G  G%......%'
p78
aS'%.%.%%.%%%%%%.%%.%.%'
p79
aS'%.%..............%.%'
p80
aS'%.%%.%.%%%%%%.%.%%.%'
p81
aS'%....%...P....%...o%'
p82
aS'%%%%%%%%%%%%%%%%%%%%'
p83
asbsS'actions'
p84
(lp85
(I0
S'Stop'
p86
tp87
a(I1
S'East'
p88
tp89
a(I2
S'West'
p90
tp91
a(I0
g86
tp92
a(I1
S'North'
p93
tp94
a(I2
g90
tp95
a(I0
g86
tp96
a(I1
g88
tp97
a(I2
g90
tp98
a(I0
g90
tp99
a(I1
g93
tp100
a(I2
g88
tp101
a(I0
g90
tp102
a(I1
g88
tp103
a(I2
g88
tp104
a(I0
g90
tp105
a(I1
g88
tp106
a(I2
g88
tp107
a(I0
g86
tp108
a(I1
g88
tp109
a(I2
g90
tp110
a(I0
g93
tp111
a(I1
g88
tp112
a(I2
g90
tp113
a(I0
g93
tp114
a(I1
g88
tp115
a(I2
g90
tp116
a(I0
g88
tp117
a(I1
g88
tp118
a(I2
g88
tp119
a(I0
g88
tp120
a(I1
S'South'
p121
tp122
a(I2
g88
tp123
a(I0
g88
tp124
a(I1
g121
tp125
a(I2
g88
tp126
a(I0
g88
tp127
a(I1
g88
tp128
a(I2
g90
tp129
a(I0
g88
tp130
a(I1
g88
tp131
a(I2
g90
tp132
a(I0
g88
tp133
a(I1
g121
tp134
a(I2
g93
tp135
a(I0
g88
tp136
a(I1
g121
tp137
a(I2
g93
tp138
a(I0
g121
tp139
a(I1
g121
tp140
a(I2
g90
tp141
a(I0
g121
tp142
a(I1
g121
tp143
a(I2
g90
tp144
a(I0
g90
tp145
a(I1
g90
tp146
a(I2
g90
tp147
a(I0
g90
tp148
a(I1
g90
tp149
a(I2
g90
tp150
a(I0
g90
tp151
a(I1
g90
tp152
a(I2
g90
tp153
a(I0
g90
tp154
a(I1
g93
tp155
a(I2
g93
tp156
a(I0
g90
tp157
a(I1
g93
tp158
a(I2
g93
tp159
a(I0
g90
tp160
a(I1
g88
tp161
a(I2
g90
tp162
a(I0
g90
tp163
a(I1
g93
tp164
a(I2
g90
tp165
a(I0
g93
tp166
a(I1
g93
tp167
a(I2
g90
tp168
a(I0
g93
tp169
a(I1
g90
tp170
a(I2
g121
tp171
a(I0
g93
tp172
a(I1
g90
tp173
a(I2
g121
tp174
a(I0
g93
tp175
a(I1
g90
tp176
a(I2
g121
tp177
a(I0
g93
tp178
a(I1
g93
tp179
a(I2
g121
tp180
a(I0
g93
tp181
a(I1
g93
tp182
a(I2
g88
tp183
a(I0
g93
tp184
a(I1
g90
tp185
a(I2
g88
tp186
a(I0
g93
tp187
a(I1
g90
tp188
a(I2
g121
tp189
a(I0
g88
tp190
a(I1
g90
tp191
a(I2
g121
tp192
a(I0
g88
tp193
a(I1
g121
tp194
a(I2
g88
tp195
a(I0
g88
tp196
a(I1
g121
tp197
a(I2
g121
tp198
a(I0
g88
tp199
a(I1
g88
tp200
a(I2
g121
tp201
a(I0
g88
tp202
a(I1
g90
tp203
a(I2
g90
tp204
a(I0
g88
tp205
a(I1
g90
tp206
a(I2
g90
tp207
a(I0
g88
tp208
a(I1
g90
tp209
a(I2
g90
tp210
a(I0
g121
tp211
a(I1
g88
tp212
a(I2
g93
tp213
a(I0
g121
tp214
a(I1
g93
tp215
a(I2
g93
tp216
a(I0
g90
tp217
a(I1
g93
tp218
a(I2
g93
tp219
a(I0
g90
tp220
a(I1
g88
tp221
a(I2
g93
tp222
a(I0
g88
tp223
a(I1
g121
tp224
a(I2
g88
tp225
a(I0
g88
tp226
a(I1
g90
tp227
a(I2
g88
tp228
a(I0
g88
tp229
a(I1
g93
tp230
a(I2
g88
tp231
a(I0
g88
tp232
a(I1
g90
tp233
a(I2
g88
tp234
a(I0
g88
tp235
a(I1
g90
tp236
a(I2
g88
tp237
a(I0
g86
tp238
a(I1
g90
tp239
a(I2
g93
tp240
a(I0
g90
tp241
a(I1
g90
tp242
a(I2
g93
tp243
a(I0
g90
tp244
a(I1
g90
tp245
a(I2
g93
tp246
a(I0
g90
tp247
a(I1
g90
tp248
a(I2
g93
tp249
a(I0
g121
tp250
a(I1
g121
tp251
a(I2
g88
tp252
a(I0
g121
tp253
a(I1
g121
tp254
a(I2
g88
tp255
a(I0
g121
tp256
a(I1
g90
tp257
a(I2
g88
tp258
a(I0
g121
tp259
a(I1
g90
tp260
a(I2
g88
tp261
a(I0
g88
tp262
a(I1
g121
tp263
a(I2
g88
tp264
a(I0
g88
tp265
a(I1
g121
tp266
a(I2
g88
tp267
a(I0
g88
tp268
a(I1
g121
tp269
a(I2
g88
tp270
a(I0
g86
tp271
a(I1
g121
tp272
a(I2
g121
tp273
a(I0
g90
tp274
a(I1
g88
tp275
a(I2
g121
tp276
a(I0
g121
tp277
a(I1
g88
tp278
a(I2
g90
tp279
a(I0
g121
tp280
a(I1
g88
tp281
a(I2
g90
tp282
a(I0
g86
tp283
a(I1
g93
tp284
a(I2
g90
tp285
a(I0
g88
tp286
a(I1
g93
tp287
a(I2
g121
tp288
a(I0
g88
tp289
a(I1
g90
tp290
a(I2
g121
tp291
a(I0
g88
tp292
a(I1
g93
tp293
a(I2
g90
tp294
a(I0
g90
tp295
a(I1
g93
tp296
a(I2
g90
tp297
a(I0
g90
tp298
a(I1
g93
tp299
a(I2
g90
tp300
a(I0
g90
tp301
a(I1
g93
tp302
a(I2
g90
tp303
a(I0
g93
tp304
a(I1
g93
tp305
a(I2
g88
tp306
a(I0
g93
tp307
a(I1
g93
tp308
a(I2
g88
tp309
a(I0
g88
tp310
a(I1
g93
tp311
a(I2
g88
tp312
a(I0
g93
tp313
a(I1
g93
tp314
a(I2
g88
tp315
a(I0
g93
tp316
a(I1
g88
tp317
a(I2
g93
tp318
a(I0
g88
tp319
a(I1
g88
tp320
a(I2
g93
tp321
a(I0
g88
tp322
a(I1
g93
tp323
a(I2
g93
tp324
a(I0
g121
tp325
a(I1
g93
tp326
a(I2
g93
tp327
a(I0
g121
tp328
a(I1
g93
tp329
a(I2
g88
tp330
a(I0
g121
tp331
a(I1
g93
tp332
a(I2
g88
tp333
a(I0
g93
tp334
a(I1
g90
tp335
a(I2
g88
tp336
a(I0
g93
tp337
a(I1
g90
tp338
a(I2
g88
tp339
a(I0
g93
tp340
a(I1
g90
tp341
a(I2
g88
tp342
a(I0
g93
tp343
a(I1
g90
tp344
a(I2
g88
tp345
a(I0
g93
tp346
a(I1
g90
tp347
a(I2
g121
tp348
a(I0
g93
tp349
a(I1
g90
tp350
a(I2
g121
tp351
a(I0
g93
tp352
a(I1
g121
tp353
a(I2
g121
tp354
a(I0
g90
tp355
a(I1
g121
tp356
a(I2
g121
tp357
a(I0
g90
tp358
a(I1
g121
tp359
a(I2
g121
tp360
a(I0
g90
tp361
a(I1
g121
tp362
a(I2
g121
tp363
a(I0
g121
tp364
a(I1
g121
tp365
a(I2
g121
tp366
a(I0
g121
tp367
a(I1
g121
tp368
a(I2
g121
tp369
a(I0
g88
tp370
a(I1
g121
tp371
a(I2
g90
tp372
a(I0
g121
tp373
a(I1
g121
tp374
a(I2
g90
tp375
a(I0
g121
tp376
a(I1
g88
tp377
a(I2
g90
tp378
a(I0
g90
tp379
a(I1
g88
tp380
a(I2
g90
tp381
a(I0
g90
tp382
a(I1
g88
tp383
a(I2
g90
tp384
a(I0
g90
tp385
a(I1
g88
tp386
a(I2
g90
tp387
a(I0
g93
tp388
a(I1
g93
tp389
a(I2
g90
tp390
a(I0
g93
tp391
a(I1
g93
tp392
a(I2
g90
tp393
a(I0
g90
tp394
a(I1
g93
tp395
a(I2
g90
tp396
a(I0
g90
tp397
a(I1
g93
tp398
a(I2
g90
tp399
a(I0
g90
tp400
a(I1
g88
tp401
a(I2
g90
tp402
a(I0
g90
tp403
a(I1
g88
tp404
a(I2
g90
tp405
a(I0
g90
tp406
a(I1
g93
tp407
a(I2
g90
tp408
a(I0
g90
tp409
a(I1
g93
tp410
a(I2
g90
tp411
a(I0
g88
tp412
a(I1
g93
tp413
a(I2
g121
tp414
a(I0
g88
tp415
a(I1
g90
tp416
a(I2
g121
tp417
a(I0
g90
tp418
a(I1
g90
tp419
a(I2
g88
tp420
a(I0
g90
tp421
a(I1
g90
tp422
a(I2
g88
tp423
a(I0
g90
tp424
a(I1
g121
tp425
a(I2
g88
tp426
a(I0
g90
tp427
a(I1
g121
tp428
a(I2
g88
tp429
a(I0
g90
tp430
a(I1
g121
tp431
a(I2
g88
tp432
a(I0
g93
tp433
a(I1
g121
tp434
a(I2
g88
tp435
a(I0
g93
tp436
a(I1
g121
tp437
a(I2
g88
tp438
a(I0
g90
tp439
a(I1
g121
tp440
a(I2
g93
tp441
a(I0
g90
tp442
a(I1
g121
tp443
a(I2
g93
tp444
a(I0
g90
tp445
a(I1
g121
tp446
a(I2
g90
tp447
a(I0
g121
tp448
a(I1
g121
tp449
a(I2
g90
tp450
a(I0
g121
tp451
a(I1
g88
tp452
a(I2
g90
tp453
a(I0
g121
tp454
a(I1
g88
tp455
a(I2
g90
tp456
a(I0
g121
tp457
a(I1
g88
tp458
a(I2
g90
tp459
a(I0
g121
tp460
a(I1
g88
tp461
a(I2
g90
tp462
a(I0
g121
tp463
a(I1
g88
tp464
a(I2
g90
tp465
a(I0
g121
tp466
a(I1
g88
tp467
a(I2
g90
tp468
a(I0
g121
tp469
a(I1
g93
tp470
a(I2
g90
tp471
a(I0
g88
tp472
a(I1
g93
tp473
a(I2
g90
tp474
a(I0
g88
tp475
a(I1
g93
tp476
a(I2
g90
tp477
a(I0
g88
tp478
a(I1
g93
tp479
a(I2
g90
tp480
a(I0
g93
tp481
a(I1
g90
tp482
a(I2
g90
tp483
a(I0
g93
tp484
a(I1
g88
tp485
a(I2
g90
tp486
a(I0
g88
tp487
a(I1
g93
tp488
a(I2
g121
tp489
a(I0
g90
tp490
a(I1
g93
tp491
a(I2
g121
tp492
a(I0
g90
tp493
a(I1
g88
tp494
a(I2
g121
tp495
a(I0
g86
tp496
a(I1
g88
tp497
a(I2
g121
tp498
a(I0
g93
tp499
a(I1
g88
tp500
a(I2
g88
tp501
a(I0
g93
tp502
a(I1
g88
tp503
a(I2
g88
tp504
a(I0
g88
tp505
a(I1
g93
tp506
a(I2
g88
tp507
a(I0
g88
tp508
a(I1
g93
tp509
a(I2
g88
tp510
a(I0
g90
tp511
a(I1
g90
tp512
a(I2
g88
tp513
a(I0
g90
tp514
a(I1
g90
tp515
a(I2
g88
tp516
a(I0
g93
tp517
a(I1
g90
tp518
a(I2
g88
tp519
a(I0
g93
tp520
a(I1
g90
tp521
a(I2
g88
tp522
a(I0
g88
tp523
a(I1
g90
tp524
a(I2
g88
tp525
a(I0
g88
tp526
a(I1
g90
tp527
a(I2
g88
tp528
a(I0
g88
tp529
a(I1
g90
tp530
a(I2
g88
tp531
a(I0
g90
tp532
a(I1
g121
tp533
a(I2
g88
tp534
a(I0
g90
tp535
a(I1
g121
tp536
a(I2
g88
tp537
a(I0
g90
tp538
a(I1
g90
tp539
a(I2
g88
tp540
a(I0
g121
tp541
a(I1
g90
tp542
a(I2
g93
tp543
a(I0
g121
tp544
a(I1
g90
tp545
a(I2
g93
tp546
a(I0
g90
tp547
as.