(dp1
S'layout'
p2
(ilayout
Layout
p3
(dp4
S'capsules'
p5
(lp6
(I18
I1
tp7
a(I1
I9
tp8
asS'numGhosts'
p9
I2
sS'food'
p10
(igame
Grid
p11
(dp12
S'CELLS_PER_INT'
p13
I30
sS'width'
p14
I20
sS'data'
p15
(lp16
(lp17
I00
aI00
aI00
aI00
aI00
aI00
aI00
aI00
aI00
aI00
aI00
aa(lp18
I00
aI01
aI01
aI01
aI01
aI01
aI01
aI01
aI01
aI00
aI00
aa(lp19
I00
aI01
aI00
aI00
aI00
aI01
aI00
aI00
aI00
aI01
aI00
aa(lp20
I00
aI01
aI00
aI01
aI01
aI01
aI01
aI01
aI00
aI01
aI00
aa(lp21
I00
aI01
aI01
aI01
aI00
aI01
aI00
aI01
aI01
aI01
aI00
aa(lp22
I00
aI00
aI00
aI01
aI00
aI01
aI00
aI01
aI00
aI00
aI00
aa(lp23
I00
aI01
aI01
aI01
aI01
aI01
aI01
aI01
aI01
aI01
aI00
aa(lp24
I00
aI01
aI00
aI01
aI00
aI00
aI00
aI01
aI00
aI01
aI00
aa(lp25
I00
aI01
aI00
aI01
aI00
aI00
aI00
aI01
aI00
aI01
aI00
aa(lp26
I00
aI00
aI00
aI01
aI00
aI00
aI00
aI01
aI00
aI01
aI00
aa(lp27
I00
aI01
aI00
aI01
aI00
aI00
aI00
aI01
aI00
aI01
aI00
aa(lp28
I00
aI01
aI00
aI01
aI00
aI00
aI00
aI01
aI00
aI01
aI00
aa(lp29
I00
aI01
aI00
aI01
aI00
aI00
aI00
aI01
aI00
aI01
aI00
aa(lp30
I00
aI01
aI01
aI01
aI01
aI01
aI01
aI01
aI01
aI01
aI00
aa(lp31
I00
aI00
aI00
aI01
aI00
aI01
aI00
aI01
aI00
aI00
aI00
aa(lp32
I00
aI01
aI01
aI01
aI00
aI01
aI00
aI01
aI01
aI01
aI00
aa(lp33
I00
aI01
aI00
aI01
aI01
aI01
aI01
aI01
aI00
aI01
aI00
aa(lp34
I00
aI01
aI00
aI00
aI00
aI01
aI00
aI00
aI00
aI01
aI00
aa(lp35
I00
aI00
aI01
aI01
aI01
aI01
aI01
aI01
aI01
aI01
aI00
aa(lp36
I00
aI00
aI00
aI00
aI00
aI00
aI00
aI00
aI00
aI00
aI00
aasS'height'
p37
I11
sbsS'agentPositions'
p38
(lp39
(I01
(I9
I1
tp40
tp41
a(I00
(I8
I5
tp42
tp43
a(I00
(I11
I5
tp44
tp45
asg37
I11
sg14
I20
sS'walls'
p46
(igame
Grid
p47
(dp48
g13
I30
sg14
I20
sg15
(lp49
(lp50
I01
aI01
aI01
aI01
aI01
aI01
aI01
aI01
aI01
aI01
aI01
aa(lp51
I01
aI00
aI00
aI00
aI00
aI00
aI00
aI00
aI00
aI00
aI01
aa(lp52
I01
aI00
aI01
aI01
aI01
aI00
aI01
aI01
aI01
aI00
aI01
aa(lp53
I01
aI00
aI01
aI00
aI00
aI00
aI00
aI00
aI01
aI00
aI01
aa(lp54
I01
aI00
aI00
aI00
aI01
aI00
aI01
aI00
aI00
aI00
aI01
aa(lp55
I01
aI01
aI01
aI00
aI01
aI00
aI01
aI00
aI01
aI01
aI01
aa(lp56
I01
aI00
aI00
aI00
aI00
aI00
aI00
aI00
aI00
aI00
aI01
aa(lp57
I01
aI00
aI01
aI00
aI01
aI01
aI01
aI00
aI01
aI00
aI01
aa(lp58
I01
aI00
aI01
aI00
aI01
aI00
aI01
aI00
aI01
aI00
aI01
aa(lp59
I01
aI00
aI01
aI00
aI01
aI00
aI00
aI00
aI01
aI00
aI01
aa(lp60
I01
aI00
aI01
aI00
aI01
aI00
aI00
aI00
aI01
aI00
aI01
aa(lp61
I01
aI00
aI01
aI00
aI01
aI00
aI01
aI00
aI01
aI00
aI01
aa(lp62
I01
aI00
aI01
aI00
aI01
aI01
aI01
aI00
aI01
aI00
aI01
aa(lp63
I01
aI00
aI00
aI00
aI00
aI00
aI00
aI00
aI00
aI00
aI01
aa(lp64
I01
aI01
aI01
aI00
aI01
aI00
aI01
aI00
aI01
aI01
aI01
aa(lp65
I01
aI00
aI00
aI00
aI01
aI00
aI01
aI00
aI00
aI00
aI01
aa(lp66
I01
aI00
aI01
aI00
aI00
aI00
aI00
aI00
aI01
aI00
aI01
aa(lp67
I01
aI00
aI01
aI01
aI01
aI00
aI01
aI01
aI01
aI00
aI01
aa(lp68
I01
aI00
aI00
aI00
aI00
aI00
aI00
aI00
aI00
aI00
aI01
aa(lp69
I01
aI01
aI01
aI01
aI01
aI01
aI01
aI01
aI01
aI01
aI01
aasg37
I11
sbsS'totalFood'
p70
I97
sS'layoutText'
p71
(lp72
S'%%%%%%%%%%%%%%%%%%%%'
p73
aS'%o...%........%....%'
p74
aS'%.%%.%.%%%%%%.%.%%.%'
p75
aS'%.%..............%.%'
p76
aS'%.%.%%.%%  %%.%%.%.%'
p77
aS'%......%G  G%......%'
p78
aS'%.%.%%.%%%%%%.%%.%.%'
p79
aS'%.%..............%.%'
p80
aS'%.%%.%.%%%%%%.%.%%.%'
p81
aS'%....%...P....%...o%'
p82
aS'%%%%%%%%%%%%%%%%%%%%'
p83
asbsS'actions'
p84
(lp85
(I0
S'Stop'
p86
tp87
a(I1
S'East'
p88
tp89
a(I2
S'West'
p90
tp91
a(I0
g86
tp92
a(I1
g88
tp93
a(I2
S'North'
p94
tp95
a(I0
g86
tp96
a(I1
g94
tp97
a(I2
g94
tp98
a(I0
g86
tp99
a(I1
g94
tp100
a(I2
g90
tp101
a(I0
g88
tp102
a(I1
g90
tp103
a(I2
g90
tp104
a(I0
g88
tp105
a(I1
g90
tp106
a(I2
g90
tp107
a(I0
g88
tp108
a(I1
g90
tp109
a(I2
g90
tp110
a(I0
g88
tp111
a(I1
g90
tp112
a(I2
S'South'
p113
tp114
a(I0
g94
tp115
a(I1
g90
tp116
a(I2
g113
tp117
a(I0
g94
tp118
a(I1
g90
tp119
a(I2
g113
tp120
a(I0
g88
tp121
a(I1
g94
tp122
a(I2
g113
tp123
a(I0
g88
tp124
a(I1
g94
tp125
a(I2
g113
tp126
a(I0
g113
tp127
a(I1
g90
tp128
a(I2
g113
tp129
a(I0
g113
tp130
a(I1
g90
tp131
a(I2
g88
tp132
a(I0
g88
tp133
a(I1
g90
tp134
a(I2
g88
tp135
a(I0
g88
tp136
a(I1
g113
tp137
a(I2
g88
tp138
a(I0
g88
tp139
a(I1
g113
tp140
a(I2
g88
tp141
a(I0
g94
tp142
a(I1
g113
tp143
a(I2
g88
tp144
a(I0
g94
tp145
a(I1
g113
tp146
a(I2
g88
tp147
a(I0
g94
tp148
a(I1
g113
tp149
a(I2
g88
tp150
a(I0
g94
tp151
a(I1
g113
tp152
a(I2
g88
tp153
a(I0
g94
tp154
a(I1
g113
tp155
a(I2
g88
tp156
a(I0
g94
tp157
a(I1
g113
tp158
a(I2
g88
tp159
a(I0
g94
tp160
a(I1
g113
tp161
a(I2
g88
tp162
a(I0
g94
tp163
a(I1
g113
tp164
a(I2
g94
tp165
a(I0
g90
tp166
a(I1
g113
tp167
a(I2
g94
tp168
a(I0
g90
tp169
a(I1
g113
tp170
a(I2
g94
tp171
a(I0
g90
tp172
a(I1
g113
tp173
a(I2
g94
tp174
a(I0
g113
tp175
a(I1
g113
tp176
a(I2
g88
tp177
a(I0
g113
tp178
a(I1
g113
tp179
a(I2
g88
tp180
a(I0
g88
tp181
a(I1
g88
tp182
a(I2
g88
tp183
a(I0
g113
tp184
a(I1
g88
tp185
a(I2
g88
tp186
a(I0
g113
tp187
a(I1
g88
tp188
a(I2
g113
tp189
a(I0
g113
tp190
a(I1
g88
tp191
a(I2
g113
tp192
a(I0
g113
tp193
a(I1
g88
tp194
a(I2
g113
tp195
a(I0
g86
tp196
a(I1
g88
tp197
a(I2
g113
tp198
a(I0
g94
tp199
a(I1
g94
tp200
a(I2
g88
tp201
a(I0
g94
tp202
a(I1
g94
tp203
a(I2
g88
tp204
a(I0
g88
tp205
a(I1
g94
tp206
a(I2
g88
tp207
a(I0
g90
tp208
a(I1
g94
tp209
a(I2
g88
tp210
a(I0
g90
tp211
a(I1
g90
tp212
a(I2
g88
tp213
a(I0
g90
tp214
a(I1
g90
tp215
a(I2
g88
tp216
a(I0
g90
tp217
a(I1
g94
tp218
a(I2
g94
tp219
a(I0
g86
tp220
a(I1
g94
tp221
a(I2
g94
tp222
a(I0
g113
tp223
a(I1
g94
tp224
a(I2
g94
tp225
a(I0
g94
tp226
a(I1
g94
tp227
a(I2
g94
tp228
a(I0
g94
tp229
a(I1
g90
tp230
a(I2
g94
tp231
a(I0
g94
tp232
a(I1
g90
tp233
a(I2
g94
tp234
a(I0
g88
tp235
a(I1
g90
tp236
a(I2
g94
tp237
a(I0
g90
tp238
a(I1
g90
tp239
a(I2
g94
tp240
a(I0
g94
tp241
a(I1
g94
tp242
a(I2
g94
tp243
a(I0
g94
tp244
a(I1
g94
tp245
a(I2
g94
tp246
a(I0
g86
tp247
a(I1
g94
tp248
a(I2
g94
tp249
a(I0
g90
tp250
a(I1
g94
tp251
a(I2
g94
tp252
a(I0
g90
tp253
a(I1
g94
tp254
a(I2
g94
tp255
a(I0
g90
tp256
a(I1
g94
tp257
a(I2
g94
tp258
a(I0
g90
tp259
a(I1
g94
tp260
a(I2
g94
tp261
a(I0
g90
tp262
a(I1
g88
tp263
a(I2
g90
tp264
a(I0
g90
tp265
a(I1
g88
tp266
a(I2
g90
tp267
a(I0
g90
tp268
a(I1
g88
tp269
a(I2
g90
tp270
a(I0
g113
tp271
a(I1
g113
tp272
a(I2
g113
tp273
a(I0
g113
tp274
a(I1
g113
tp275
a(I2
g113
tp276
a(I0
g88
tp277
a(I1
g88
tp278
a(I2
g88
tp279
a(I0
g88
tp280
a(I1
g88
tp281
a(I2
g113
tp282
a(I0
g88
tp283
a(I1
g113
tp284
a(I2
g113
tp285
a(I0
g88
tp286
a(I1
g113
tp287
a(I2
g113
tp288
a(I0
g88
tp289
a(I1
g113
tp290
a(I2
g113
tp291
a(I0
g88
tp292
a(I1
g113
tp293
a(I2
g90
tp294
a(I0
g88
tp295
a(I1
g88
tp296
a(I2
g90
tp297
a(I0
g94
tp298
a(I1
g88
tp299
a(I2
g90
tp300
a(I0
g94
tp301
a(I1
g88
tp302
a(I2
g94
tp303
a(I0
g90
tp304
a(I1
g88
tp305
a(I2
g94
tp306
a(I0
g90
tp307
a(I1
g88
tp308
a(I2
g88
tp309
a(I0
g90
tp310
a(I1
g88
tp311
a(I2
g88
tp312
a(I0
g90
tp313
a(I1
g88
tp314
a(I2
g88
tp315
a(I0
g90
tp316
a(I1
g113
tp317
a(I2
g94
tp318
a(I0
g90
tp319
a(I1
g113
tp320
a(I2
g94
tp321
a(I0
g90
tp322
a(I1
g90
tp323
a(I2
g90
tp324
a(I0
g113
tp325
a(I1
g90
tp326
a(I2
g90
tp327
a(I0
g113
tp328
a(I1
g90
tp329
a(I2
g90
tp330
a(I0
g90
tp331
a(I1
g90
tp332
a(I2
g94
tp333
a(I0
g90
tp334
a(I1
g90
tp335
a(I2
g94
tp336
a(I0
g94
tp337
a(I1
g90
tp338
a(I2
g90
tp339
a(I0
g94
tp340
a(I1
g90
tp341
a(I2
g90
tp342
a(I0
g90
tp343
a(I1
g94
tp344
a(I2
g90
tp345
a(I0
g90
tp346
a(I1
g94
tp347
a(I2
g90
tp348
a(I0
g90
tp349
a(I1
g94
tp350
a(I2
g90
tp351
a(I0
g113
tp352
a(I1
g94
tp353
a(I2
g90
tp354
a(I0
g113
tp355
a(I1
g94
tp356
a(I2
g90
tp357
a(I0
g113
tp358
a(I1
g94
tp359
a(I2
g90
tp360
a(I0
g113
tp361
a(I1
g90
tp362
a(I2
g90
tp363
a(I0
g113
tp364
a(I1
g90
tp365
a(I2
g90
tp366
a(I0
g113
tp367
a(I1
g90
tp368
a(I2
g113
tp369
a(I0
g113
tp370
a(I1
g90
tp371
a(I2
g113
tp372
a(I0
g113
tp373
a(I1
g90
tp374
a(I2
g113
tp375
a(I0
g88
tp376
a(I1
g90
tp377
a(I2
g113
tp378
a(I0
g88
tp379
a(I1
g90
tp380
a(I2
g88
tp381
a(I0
g88
tp382
a(I1
g90
tp383
a(I2
g88
tp384
a(I0
g94
tp385
a(I1
g90
tp386
a(I2
g88
tp387
a(I0
g94
tp388
a(I1
g90
tp389
a(I2
g88
tp390
a(I0
g90
tp391
a(I1
g113
tp392
a(I2
g88
tp393
a(I0
g86
tp394
a(I1
g113
tp395
a(I2
g88
tp396
a(I0
g94
tp397
a(I1
g113
tp398
a(I2
g113
tp399
a(I0
g94
tp400
a(I1
g113
tp401
a(I2
g113
tp402
a(I0
g90
tp403
a(I1
g113
tp404
a(I2
g113
tp405
a(I0
g90
tp406
a(I1
g113
tp407
a(I2
g113
tp408
a(I0
g113
tp409
a(I1
g113
tp410
a(I2
g88
tp411
a(I0
g113
tp412
a(I1
g113
tp413
a(I2
g88
tp414
a(I0
g113
tp415
a(I1
g88
tp416
a(I2
g88
tp417
a(I0
g113
tp418
a(I1
g88
tp419
a(I2
g88
tp420
a(I0
g88
tp421
a(I1
g88
tp422
a(I2
g90
tp423
a(I0
g88
tp424
a(I1
g88
tp425
a(I2
g90
tp426
a(I0
g88
tp427
a(I1
g90
tp428
a(I2
g90
tp429
a(I0
g94
tp430
a(I1
g90
tp431
a(I2
g90
tp432
a(I0
g94
tp433
a(I1
g94
tp434
a(I2
g94
tp435
a(I0
g88
tp436
a(I1
g88
tp437
a(I2
g94
tp438
a(I0
g88
tp439
a(I1
g113
tp440
a(I2
g94
tp441
a(I0
g113
tp442
a(I1
g90
tp443
a(I2
g94
tp444
a(I0
g113
tp445
a(I1
g90
tp446
a(I2
g88
tp447
a(I0
g88
tp448
a(I1
g88
tp449
a(I2
g88
tp450
a(I0
g88
tp451
a(I1
g88
tp452
a(I2
g113
tp453
a(I0
g88
tp454
a(I1
g94
tp455
a(I2
g113
tp456
a(I0
g88
tp457
a(I1
g94
tp458
a(I2
g90
tp459
a(I0
g88
tp460
a(I1
g88
tp461
a(I2
g90
tp462
a(I0
g88
tp463
a(I1
g88
tp464
a(I2
g113
tp465
a(I0
g88
tp466
a(I1
g88
tp467
a(I2
g113
tp468
a(I0
g94
tp469
a(I1
g88
tp470
a(I2
g90
tp471
a(I0
g94
tp472
a(I1
g88
tp473
a(I2
g88
tp474
a(I0
g90
tp475
a(I1
g94
tp476
a(I2
g94
tp477
a(I0
g90
tp478
a(I1
g94
tp479
a(I2
g94
tp480
a(I0
g90
tp481
a(I1
g88
tp482
a(I2
g88
tp483
a(I0
g90
tp484
a(I1
g88
tp485
a(I2
g113
tp486
a(I0
g90
tp487
a(I1
g88
tp488
a(I2
g90
tp489
a(I0
g90
tp490
a(I1
g113
tp491
a(I2
g113
tp492
a(I0
g90
tp493
a(I1
g113
tp494
a(I2
g90
tp495
a(I0
g94
tp496
a(I1
g113
tp497
a(I2
g88
tp498
a(I0
g94
tp499
a(I1
g113
tp500
a(I2
g88
tp501
a(I0
g94
tp502
a(I1
g113
tp503
a(I2
g94
tp504
a(I0
g113
tp505
a(I1
g113
tp506
a(I2
g94
tp507
a(I0
g90
tp508
a(I1
g113
tp509
a(I2
g90
tp510
a(I0
g90
tp511
a(I1
g113
tp512
a(I2
g90
tp513
a(I0
g90
tp514
a(I1
g90
tp515
a(I2
g90
tp516
a(I0
g94
tp517
a(I1
g90
tp518
a(I2
g90
tp519
a(I0
g94
tp520
as.